target datalayout = "e-m:e-p270:32:32-p271:32:32-p272:64:64-i64:64-i128:128-f80:128-n8:16:32:64-S128"
target triple = "x86_64-pc-linux-gnu"

%struct.stb_vorbis = type { i32, i32, i32, i32, i32, ptr, i32, ptr, ptr, i32, i32, ptr, ptr, ptr, i32, i8, i32, %struct.ProbedPage, %struct.ProbedPage, %struct.stb_vorbis_alloc, i32, i32, i32, i32, [2 x i32], i32, i32, i32, ptr, i32, [64 x i16], ptr, i32, [64 x i16], ptr, i32, ptr, i32, [64 x %struct.Mode], i32, [16 x ptr], [16 x ptr], [16 x ptr], i32, [16 x ptr], i32, i32, [2 x ptr], [2 x ptr], [2 x ptr], [2 x ptr], [2 x ptr], i32, i32, i32, [255 x i8], i8, i8, i8, i32, i32, i32, i32, i32, i32, i32, i32, i32, i32, i32, [4 x %struct.CRCscan], i32, i32 }
%struct.ProbedPage = type { i32, i32, i32 }
%struct.stb_vorbis_alloc = type { ptr, i32 }
%struct.Mode = type { i8, i8, i16, i16 }
%struct.CRCscan = type { i32, i32, i32, i32, i32 }

; Function Attrs: nounwind uwtable
define i32 @set_file_offset(ptr noundef %0, i32 noundef %1) #0 {
  %3 = alloca i32, align 4
  %4 = alloca ptr, align 8
  %5 = alloca i32, align 4
  store ptr %0, ptr %4, align 8, !tbaa !3
  store i32 %1, ptr %5, align 4, !tbaa !8
  %6 = load ptr, ptr %4, align 8, !tbaa !3
  %7 = getelementptr inbounds nuw %struct.stb_vorbis, ptr %6, i32 0, i32 15
  %8 = load i8, ptr %7, align 4, !tbaa !73
  %9 = icmp ne i8 %8, 0
  br i1 %9, label %10, label %11

10:                                               ; preds = %2
  store i32 0, ptr %3, align 4
  br label %97

11:                                               ; preds = %2
  %12 = load ptr, ptr %4, align 8, !tbaa !3
  %13 = getelementptr inbounds nuw %struct.stb_vorbis, ptr %12, i32 0, i32 22
  store i32 0, ptr %13, align 8, !tbaa !17
  %14 = load ptr, ptr %4, align 8, !tbaa !3
  %15 = getelementptr inbounds nuw %struct.stb_vorbis, ptr %14, i32 0, i32 11
  %16 = load ptr, ptr %15, align 8, !tbaa !68
  %17 = icmp ne ptr %16, null
  br i1 %17, label %18, label %57

18:                                               ; preds = %11
  %19 = load ptr, ptr %4, align 8, !tbaa !3
  %20 = getelementptr inbounds nuw %struct.stb_vorbis, ptr %19, i32 0, i32 12
  %21 = load ptr, ptr %20, align 8, !tbaa !74
  %22 = load i32, ptr %5, align 4, !tbaa !8
  %23 = zext i32 %22 to i64
  %24 = getelementptr inbounds nuw i8, ptr %21, i64 %23
  %25 = load ptr, ptr %4, align 8, !tbaa !3
  %26 = getelementptr inbounds nuw %struct.stb_vorbis, ptr %25, i32 0, i32 13
  %27 = load ptr, ptr %26, align 8, !tbaa !69
  %28 = icmp uge ptr %24, %27
  br i1 %28, label %40, label %29

29:                                               ; preds = %18
  %30 = load ptr, ptr %4, align 8, !tbaa !3
  %31 = getelementptr inbounds nuw %struct.stb_vorbis, ptr %30, i32 0, i32 12
  %32 = load ptr, ptr %31, align 8, !tbaa !74
  %33 = load i32, ptr %5, align 4, !tbaa !8
  %34 = zext i32 %33 to i64
  %35 = getelementptr inbounds nuw i8, ptr %32, i64 %34
  %36 = load ptr, ptr %4, align 8, !tbaa !3
  %37 = getelementptr inbounds nuw %struct.stb_vorbis, ptr %36, i32 0, i32 12
  %38 = load ptr, ptr %37, align 8, !tbaa !74
  %39 = icmp ult ptr %35, %38
  br i1 %39, label %40, label %48

40:                                               ; preds = %29, %18
  %41 = load ptr, ptr %4, align 8, !tbaa !3
  %42 = getelementptr inbounds nuw %struct.stb_vorbis, ptr %41, i32 0, i32 13
  %43 = load ptr, ptr %42, align 8, !tbaa !69
  %44 = load ptr, ptr %4, align 8, !tbaa !3
  %45 = getelementptr inbounds nuw %struct.stb_vorbis, ptr %44, i32 0, i32 11
  store ptr %43, ptr %45, align 8, !tbaa !68
  %46 = load ptr, ptr %4, align 8, !tbaa !3
  %47 = getelementptr inbounds nuw %struct.stb_vorbis, ptr %46, i32 0, i32 22
  store i32 1, ptr %47, align 8, !tbaa !17
  store i32 0, ptr %3, align 4
  br label %97

48:                                               ; preds = %29
  %49 = load ptr, ptr %4, align 8, !tbaa !3
  %50 = getelementptr inbounds nuw %struct.stb_vorbis, ptr %49, i32 0, i32 12
  %51 = load ptr, ptr %50, align 8, !tbaa !74
  %52 = load i32, ptr %5, align 4, !tbaa !8
  %53 = zext i32 %52 to i64
  %54 = getelementptr inbounds nuw i8, ptr %51, i64 %53
  %55 = load ptr, ptr %4, align 8, !tbaa !3
  %56 = getelementptr inbounds nuw %struct.stb_vorbis, ptr %55, i32 0, i32 11
  store ptr %54, ptr %56, align 8, !tbaa !68
  store i32 1, ptr %3, align 4
  br label %97

57:                                               ; preds = %11
  %58 = load i32, ptr %5, align 4, !tbaa !8
  %59 = load ptr, ptr %4, align 8, !tbaa !3
  %60 = getelementptr inbounds nuw %struct.stb_vorbis, ptr %59, i32 0, i32 9
  %61 = load i32, ptr %60, align 8, !tbaa !75
  %62 = add i32 %58, %61
  %63 = load i32, ptr %5, align 4, !tbaa !8
  %64 = icmp ult i32 %62, %63
  br i1 %64, label %68, label %65

65:                                               ; preds = %57
  %66 = load i32, ptr %5, align 4, !tbaa !8
  %67 = icmp uge i32 %66, -2147483648
  br i1 %67, label %68, label %71

68:                                               ; preds = %65, %57
  store i32 2147483647, ptr %5, align 4, !tbaa !8
  %69 = load ptr, ptr %4, align 8, !tbaa !3
  %70 = getelementptr inbounds nuw %struct.stb_vorbis, ptr %69, i32 0, i32 22
  store i32 1, ptr %70, align 8, !tbaa !17
  br label %77

71:                                               ; preds = %65
  %72 = load ptr, ptr %4, align 8, !tbaa !3
  %73 = getelementptr inbounds nuw %struct.stb_vorbis, ptr %72, i32 0, i32 9
  %74 = load i32, ptr %73, align 8, !tbaa !75
  %75 = load i32, ptr %5, align 4, !tbaa !8
  %76 = add i32 %75, %74
  store i32 %76, ptr %5, align 4, !tbaa !8
  br label %77

77:                                               ; preds = %71, %68
  %78 = load ptr, ptr %4, align 8, !tbaa !3
  %79 = getelementptr inbounds nuw %struct.stb_vorbis, ptr %78, i32 0, i32 8
  %80 = load ptr, ptr %79, align 8, !tbaa !70
  %81 = load i32, ptr %5, align 4, !tbaa !8
  %82 = zext i32 %81 to i64
  %83 = call i32 @fseek(ptr noundef %80, i64 noundef %82, i32 noundef 0)
  %84 = icmp ne i32 %83, 0
  br i1 %84, label %86, label %85

85:                                               ; preds = %77
  store i32 1, ptr %3, align 4
  br label %97

86:                                               ; preds = %77
  %87 = load ptr, ptr %4, align 8, !tbaa !3
  %88 = getelementptr inbounds nuw %struct.stb_vorbis, ptr %87, i32 0, i32 22
  store i32 1, ptr %88, align 8, !tbaa !17
  %89 = load ptr, ptr %4, align 8, !tbaa !3
  %90 = getelementptr inbounds nuw %struct.stb_vorbis, ptr %89, i32 0, i32 8
  %91 = load ptr, ptr %90, align 8, !tbaa !70
  %92 = load ptr, ptr %4, align 8, !tbaa !3
  %93 = getelementptr inbounds nuw %struct.stb_vorbis, ptr %92, i32 0, i32 9
  %94 = load i32, ptr %93, align 8, !tbaa !75
  %95 = zext i32 %94 to i64
  %96 = call i32 @fseek(ptr noundef %91, i64 noundef %95, i32 noundef 2)
  store i32 0, ptr %3, align 4
  br label %97

97:                                               ; preds = %86, %85, %48, %40, %10
  %98 = load i32, ptr %3, align 4
  ret i32 %98
}