; Function Attrs: nofree nounwind uwtable
define range(i32 0, 2) i32 @set_file_offset(ptr noundef captures(none) %0, i32 noundef %1) local_unnamed_addr #17 {
  %3 = getelementptr inbounds nuw i8, ptr %0, i64 92
  %4 = load i8, ptr %3, align 4, !tbaa !63
  %.not = icmp eq i8 %4, 0
  br i1 %.not, label %5, label %36

5:                                                ; preds = %2
  %6 = getelementptr inbounds nuw i8, ptr %0, i64 152
  store i32 0, ptr %6, align 8, !tbaa !61
  %7 = getelementptr inbounds nuw i8, ptr %0, i64 64
  %8 = load ptr, ptr %7, align 8, !tbaa !59
  %.not31 = icmp eq ptr %8, null
  br i1 %.not31, label %18, label %9

9:                                                ; preds = %5
  %10 = getelementptr inbounds nuw i8, ptr %0, i64 72
  %11 = load ptr, ptr %10, align 8, !tbaa !64
  %12 = zext i32 %1 to i64
  %13 = getelementptr inbounds nuw i8, ptr %11, i64 %12
  %14 = getelementptr inbounds nuw i8, ptr %0, i64 80
  %15 = load ptr, ptr %14, align 8, !tbaa !60
  %.not33 = icmp ult ptr %13, %15
  br i1 %.not33, label %17, label %16

16:                                               ; preds = %9
  store ptr %15, ptr %7, align 8, !tbaa !59
  store i32 1, ptr %6, align 8, !tbaa !61
  br label %36

17:                                               ; preds = %9
  store ptr %13, ptr %7, align 8, !tbaa !59
  br label %36

18:                                               ; preds = %5
  %19 = getelementptr inbounds nuw i8, ptr %0, i64 56
  %20 = load i32, ptr %19, align 8, !tbaa !65
  %21 = add i32 %20, %1
  %22 = icmp ult i32 %21, %1
  %23 = icmp slt i32 %1, 0
  %or.cond = or i1 %23, %22
  br i1 %or.cond, label %24, label %25

24:                                               ; preds = %18
  store i32 1, ptr %6, align 8, !tbaa !61
  br label %27

25:                                               ; preds = %18
  %26 = zext i32 %21 to i64
  br label %27

27:                                               ; preds = %25, %24
  %.0 = phi i64 [ 2147483647, %24 ], [ %26, %25 ]
  %28 = getelementptr inbounds nuw i8, ptr %0, i64 48
  %29 = load ptr, ptr %28, align 8, !tbaa !62
  %30 = tail call i32 @fseek(ptr noundef %29, i64 noundef %.0, i32 noundef 0)
  %.not32 = icmp eq i32 %30, 0
  br i1 %.not32, label %36, label %31

31:                                               ; preds = %27
  store i32 1, ptr %6, align 8, !tbaa !61
  %32 = load ptr, ptr %28, align 8, !tbaa !62
  %33 = load i32, ptr %19, align 8, !tbaa !65
  %34 = zext i32 %33 to i64
  %35 = tail call i32 @fseek(ptr noundef %32, i64 noundef %34, i32 noundef 2)
  br label %36

36:                                               ; preds = %27, %2, %31, %17, %16
  %.028 = phi i32 [ 0, %16 ], [ 1, %17 ], [ 0, %31 ], [ 0, %2 ], [ 1, %27 ]
  ret i32 %.028
}